target datalayout = "e-m:e-p270:32:32-p271:32:32-p272:64:64-i64:64-i128:128-f80:128-n8:16:32:64-S128"
target triple = "x86_64-unknown-linux-gnu"

%"class.std::__shared_count" = type { ptr }
%"struct.rocksdb::AdvancedColumnFamilyOptions" = type { i32, i32, i32, i64, i8, i64, double, ptr, double, i8, i64, %"class.std::shared_ptr", i32, i64, %"class.std::vector", i32, i32, i32, i64, i32, i8, i8, double, %"class.std::vector.0", i64, i8, i64, i64, i8, i8, [2 x i8], %"class.rocksdb::CompactionOptionsUniversal", %"struct.rocksdb::CompactionOptionsFIFO", i64, %"class.std::shared_ptr.10", %"class.std::vector.13", i64, i8, i8, i8, i8, i8, i64, i64, i64, i8, i8, i8, i64, i64, i8, i64, i64, i8, i8, double, double, i64, i32, %"class.std::shared_ptr.18", i8, i32, i8, i8, i32 }
%"class.std::shared_ptr" = type { %"class.std::__shared_ptr" }
%"class.std::__shared_ptr" = type { ptr, %"class.std::__shared_count" }
%"class.std::vector" = type { %"struct.std::_Vector_base" }
%"struct.std::_Vector_base" = type { %"struct.std::_Vector_base<rocksdb::CompressionType, std::allocator<rocksdb::CompressionType>>::_Vector_impl" }
%"struct.std::_Vector_base<rocksdb::CompressionType, std::allocator<rocksdb::CompressionType>>::_Vector_impl" = type { %"struct.std::_Vector_base<rocksdb::CompressionType, std::allocator<rocksdb::CompressionType>>::_Vector_impl_data" }
%"struct.std::_Vector_base<rocksdb::CompressionType, std::allocator<rocksdb::CompressionType>>::_Vector_impl_data" = type { ptr, ptr, ptr }
%"class.std::vector.0" = type { %"struct.std::_Vector_base.1" }
%"struct.std::_Vector_base.1" = type { %"struct.std::_Vector_base<int, std::allocator<int>>::_Vector_impl" }
%"struct.std::_Vector_base<int, std::allocator<int>>::_Vector_impl" = type { %"struct.std::_Vector_base<int, std::allocator<int>>::_Vector_impl_data" }
%"struct.std::_Vector_base<int, std::allocator<int>>::_Vector_impl_data" = type { ptr, ptr, ptr }
%"class.rocksdb::CompactionOptionsUniversal" = type <{ i32, i32, i32, i32, i32, i32, i8, i8, [2 x i8] }>
%"struct.rocksdb::CompactionOptionsFIFO" = type { i64, i8, i64, %"class.std::vector.5" }
%"class.std::vector.5" = type { %"struct.std::_Vector_base.6" }
%"struct.std::_Vector_base.6" = type { %"struct.std::_Vector_base<rocksdb::FileTemperatureAge, std::allocator<rocksdb::FileTemperatureAge>>::_Vector_impl" }
%"struct.std::_Vector_base<rocksdb::FileTemperatureAge, std::allocator<rocksdb::FileTemperatureAge>>::_Vector_impl" = type { %"struct.std::_Vector_base<rocksdb::FileTemperatureAge, std::allocator<rocksdb::FileTemperatureAge>>::_Vector_impl_data" }
%"struct.std::_Vector_base<rocksdb::FileTemperatureAge, std::allocator<rocksdb::FileTemperatureAge>>::_Vector_impl_data" = type { ptr, ptr, ptr }
%"class.std::shared_ptr.10" = type { %"class.std::__shared_ptr.11" }
%"class.std::__shared_ptr.11" = type { ptr, %"class.std::__shared_count" }
%"class.std::vector.13" = type { %"struct.std::_Vector_base.14" }
%"struct.std::_Vector_base.14" = type { %"struct.std::_Vector_base<std::shared_ptr<rocksdb::TablePropertiesCollectorFactory>, std::allocator<std::shared_ptr<rocksdb::TablePropertiesCollectorFactory>>>::_Vector_impl" }
%"struct.std::_Vector_base<std::shared_ptr<rocksdb::TablePropertiesCollectorFactory>, std::allocator<std::shared_ptr<rocksdb::TablePropertiesCollectorFactory>>>::_Vector_impl" = type { %"struct.std::_Vector_base<std::shared_ptr<rocksdb::TablePropertiesCollectorFactory>, std::allocator<std::shared_ptr<rocksdb::TablePropertiesCollectorFactory>>>::_Vector_impl_data" }
%"struct.std::_Vector_base<std::shared_ptr<rocksdb::TablePropertiesCollectorFactory>, std::allocator<std::shared_ptr<rocksdb::TablePropertiesCollectorFactory>>>::_Vector_impl_data" = type { ptr, ptr, ptr }
%"class.std::shared_ptr.18" = type { %"class.std::__shared_ptr.19" }
%"class.std::__shared_ptr.19" = type { ptr, %"class.std::__shared_count" }
%"struct.rocksdb::ColumnFamilyOptions" = type <{ %"struct.rocksdb::AdvancedColumnFamilyOptions", ptr, %"class.std::shared_ptr.63", ptr, %"class.std::shared_ptr.66", i64, i8, i8, [6 x i8], %"struct.rocksdb::CompressionOptions", %"struct.rocksdb::CompressionOptions", i32, [4 x i8], %"class.std::shared_ptr", i64, i64, i8, [7 x i8], %"class.std::shared_ptr.69", %"class.std::vector.41", %"class.std::shared_ptr.72", %"class.std::shared_ptr.75", i32, [4 x i8] }>
%"class.std::shared_ptr.63" = type { %"class.std::__shared_ptr.64" }
%"class.std::__shared_ptr.64" = type { ptr, %"class.std::__shared_count" }
%"class.std::shared_ptr.66" = type { %"class.std::__shared_ptr.67" }
%"class.std::__shared_ptr.67" = type { ptr, %"class.std::__shared_count" }
%"struct.rocksdb::CompressionOptions" = type <{ i32, i32, i32, i32, i32, i32, i8, [7 x i8], i64, i8, [3 x i8], i32, i8, [7 x i8] }>
%"class.std::shared_ptr.69" = type { %"class.std::__shared_ptr.70" }
%"class.std::__shared_ptr.70" = type { ptr, %"class.std::__shared_count" }
%"class.std::vector.41" = type { %"struct.std::_Vector_base.42" }
%"struct.std::_Vector_base.42" = type { %"struct.std::_Vector_base<rocksdb::DbPath, std::allocator<rocksdb::DbPath>>::_Vector_impl" }
%"struct.std::_Vector_base<rocksdb::DbPath, std::allocator<rocksdb::DbPath>>::_Vector_impl" = type { %"struct.std::_Vector_base<rocksdb::DbPath, std::allocator<rocksdb::DbPath>>::_Vector_impl_data" }
%"struct.std::_Vector_base<rocksdb::DbPath, std::allocator<rocksdb::DbPath>>::_Vector_impl_data" = type { ptr, ptr, ptr }
%"class.std::shared_ptr.72" = type { %"class.std::__shared_ptr.73" }
%"class.std::__shared_ptr.73" = type { ptr, %"class.std::__shared_count" }
%"class.std::shared_ptr.75" = type { %"class.std::__shared_ptr.76" }
%"class.std::__shared_ptr.76" = type { ptr, %"class.std::__shared_count" }
%"struct.rocksdb::DBOptions" = type { i8, i8, i8, i8, i8, i8, i8, i8, ptr, %"class.std::shared_ptr.29", %"class.std::shared_ptr.32", %"class.std::shared_ptr.35", i8, i32, i32, i64, %"class.std::shared_ptr.38", i8, %"class.std::vector.41", %"class.std::__cxx11::basic_string", %"class.std::__cxx11::basic_string", i64, i32, i32, i32, i32, i64, i64, i64, i64, i64, i32, i64, i64, i64, i8, i8, i8, i8, i8, i8, i32, i32, i8, i64, i8, i64, %"class.std::shared_ptr.49", i32, i64, i64, i64, i8, i64, i64, i8, %"class.std::vector.52", i8, i64, i8, i8, i8, i8, i64, i64, i64, i8, i8, i8, i8, %"class.std::shared_ptr.18", ptr, i8, i8, i8, i8, i8, i8, i8, i8, i8, i8, i8, i64, %"class.std::shared_ptr.57", i8, i32, i64, i8, %"class.std::__cxx11::basic_string", %"class.rocksdb::SmallEnumSet", %"class.std::shared_ptr.60", i8, i8, %"class.std::__cxx11::basic_string" }
%"class.std::shared_ptr.29" = type { %"class.std::__shared_ptr.30" }
%"class.std::__shared_ptr.30" = type { ptr, %"class.std::__shared_count" }
%"class.std::shared_ptr.32" = type { %"class.std::__shared_ptr.33" }
%"class.std::__shared_ptr.33" = type { ptr, %"class.std::__shared_count" }
%"class.std::shared_ptr.35" = type { %"class.std::__shared_ptr.36" }
%"class.std::__shared_ptr.36" = type { ptr, %"class.std::__shared_count" }
%"class.std::shared_ptr.38" = type { %"class.std::__shared_ptr.39" }
%"class.std::__shared_ptr.39" = type { ptr, %"class.std::__shared_count" }
%"class.std::shared_ptr.49" = type { %"class.std::__shared_ptr.50" }
%"class.std::__shared_ptr.50" = type { ptr, %"class.std::__shared_count" }
%"class.std::vector.52" = type { %"struct.std::_Vector_base.53" }
%"struct.std::_Vector_base.53" = type { %"struct.std::_Vector_base<std::shared_ptr<rocksdb::EventListener>, std::allocator<std::shared_ptr<rocksdb::EventListener>>>::_Vector_impl" }
%"struct.std::_Vector_base<std::shared_ptr<rocksdb::EventListener>, std::allocator<std::shared_ptr<rocksdb::EventListener>>>::_Vector_impl" = type { %"struct.std::_Vector_base<std::shared_ptr<rocksdb::EventListener>, std::allocator<std::shared_ptr<rocksdb::EventListener>>>::_Vector_impl_data" }
%"struct.std::_Vector_base<std::shared_ptr<rocksdb::EventListener>, std::allocator<std::shared_ptr<rocksdb::EventListener>>>::_Vector_impl_data" = type { ptr, ptr, ptr }
%"class.std::shared_ptr.57" = type { %"class.std::__shared_ptr.58" }
%"class.std::__shared_ptr.58" = type { ptr, %"class.std::__shared_count" }
%"class.rocksdb::SmallEnumSet" = type { i64 }
%"class.std::shared_ptr.60" = type { %"class.std::__shared_ptr.61" }
%"class.std::__shared_ptr.61" = type { ptr, %"class.std::__shared_count" }
%"class.std::__cxx11::basic_string" = type { %"struct.std::__cxx11::basic_string<char>::_Alloc_hider", i64, %union.anon }
%"struct.std::__cxx11::basic_string<char>::_Alloc_hider" = type { ptr }
%union.anon = type { i64, [8 x i8] }

; Function Attrs: mustprogress nounwind uwtable
define noundef ptr @_ZN7rocksdb9DBOptions11OldDefaultsEii(ptr noundef nonnull align 8 dereferenceable(688) %this, i32 noundef %rocksdb_major_version, i32 noundef %rocksdb_minor_version) #1 align 2 {
entry:
  %this.addr = alloca ptr, align 8
  %rocksdb_major_version.addr = alloca i32, align 4
  %rocksdb_minor_version.addr = alloca i32, align 4
  store ptr %this, ptr %this.addr, align 8
  store i32 %rocksdb_major_version, ptr %rocksdb_major_version.addr, align 4
  store i32 %rocksdb_minor_version, ptr %rocksdb_minor_version.addr, align 4
  %this1 = load ptr, ptr %this.addr, align 8
  %0 = load i32, ptr %rocksdb_major_version.addr, align 4
  %cmp = icmp slt i32 %0, 4
  br i1 %cmp, label %if.then, label %lor.lhs.false

lor.lhs.false:                                    ; preds = %entry
  %1 = load i32, ptr %rocksdb_major_version.addr, align 4
  %cmp2 = icmp eq i32 %1, 4
  br i1 %cmp2, label %land.lhs.true, label %if.end

land.lhs.true:                                    ; preds = %lor.lhs.false
  %2 = load i32, ptr %rocksdb_minor_version.addr, align 4
  %cmp3 = icmp slt i32 %2, 7
  br i1 %cmp3, label %if.then, label %if.end

if.then:                                          ; preds = %land.lhs.true, %entry
  %max_file_opening_threads = getelementptr inbounds %"struct.rocksdb::DBOptions", ptr %this1, i32 0, i32 14
  store i32 1, ptr %max_file_opening_threads, align 8
  %table_cache_numshardbits = getelementptr inbounds %"struct.rocksdb::DBOptions", ptr %this1, i32 0, i32 31
  store i32 4, ptr %table_cache_numshardbits, align 8
  br label %if.end

if.end:                                           ; preds = %if.then, %land.lhs.true, %lor.lhs.false
  %3 = load i32, ptr %rocksdb_major_version.addr, align 4
  %cmp4 = icmp slt i32 %3, 5
  br i1 %cmp4, label %if.then9, label %lor.lhs.false5

lor.lhs.false5:                                   ; preds = %if.end
  %4 = load i32, ptr %rocksdb_major_version.addr, align 4
  %cmp6 = icmp eq i32 %4, 5
  br i1 %cmp6, label %land.lhs.true7, label %if.else

land.lhs.true7:                                   ; preds = %lor.lhs.false5
  %5 = load i32, ptr %rocksdb_minor_version.addr, align 4
  %cmp8 = icmp slt i32 %5, 2
  br i1 %cmp8, label %if.then9, label %if.else

if.then9:                                         ; preds = %land.lhs.true7, %if.end
  %delayed_write_rate = getelementptr inbounds %"struct.rocksdb::DBOptions", ptr %this1, i32 0, i32 58
  store i64 2097152, ptr %delayed_write_rate, align 8
  br label %if.end18

if.else:                                          ; preds = %land.lhs.true7, %lor.lhs.false5
  %6 = load i32, ptr %rocksdb_major_version.addr, align 4
  %cmp10 = icmp slt i32 %6, 5
  br i1 %cmp10, label %if.then15, label %lor.lhs.false11

lor.lhs.false11:                                  ; preds = %if.else
  %7 = load i32, ptr %rocksdb_major_version.addr, align 4
  %cmp12 = icmp eq i32 %7, 5
  br i1 %cmp12, label %land.lhs.true13, label %if.end17

land.lhs.true13:                                  ; preds = %lor.lhs.false11
  %8 = load i32, ptr %rocksdb_minor_version.addr, align 4
  %cmp14 = icmp slt i32 %8, 6
  br i1 %cmp14, label %if.then15, label %if.end17

if.then15:                                        ; preds = %land.lhs.true13, %if.else
  %delayed_write_rate16 = getelementptr inbounds %"struct.rocksdb::DBOptions", ptr %this1, i32 0, i32 58
  store i64 16777216, ptr %delayed_write_rate16, align 8
  br label %if.end17

if.end17:                                         ; preds = %if.then15, %land.lhs.true13, %lor.lhs.false11
  br label %if.end18

if.end18:                                         ; preds = %if.end17, %if.then9
  %max_open_files = getelementptr inbounds %"struct.rocksdb::DBOptions", ptr %this1, i32 0, i32 13
  store i32 5000, ptr %max_open_files, align 4
  %wal_recovery_mode = getelementptr inbounds %"struct.rocksdb::DBOptions", ptr %this1, i32 0, i32 68
  store i8 0, ptr %wal_recovery_mode, align 2
  ret ptr %this1
}

; Function Attrs: mustprogress nounwind uwtable
define noundef ptr @_ZN7rocksdb19ColumnFamilyOptions11OldDefaultsEii(ptr noundef nonnull align 8 dereferenceable(820) %this, i32 noundef %rocksdb_major_version, i32 noundef %rocksdb_minor_version) #1 align 2 {
entry:
  %this.addr = alloca ptr, align 8
  %rocksdb_major_version.addr = alloca i32, align 4
  %rocksdb_minor_version.addr = alloca i32, align 4
  store ptr %this, ptr %this.addr, align 8
  store i32 %rocksdb_major_version, ptr %rocksdb_major_version.addr, align 4
  store i32 %rocksdb_minor_version, ptr %rocksdb_minor_version.addr, align 4
  %this1 = load ptr, ptr %this.addr, align 8
  %0 = load i32, ptr %rocksdb_major_version.addr, align 4
  %cmp = icmp slt i32 %0, 5
  br i1 %cmp, label %if.then, label %lor.lhs.false

lor.lhs.false:                                    ; preds = %entry
  %1 = load i32, ptr %rocksdb_major_version.addr, align 4
  %cmp2 = icmp eq i32 %1, 5
  br i1 %cmp2, label %land.lhs.true, label %if.end

land.lhs.true:                                    ; preds = %lor.lhs.false
  %2 = load i32, ptr %rocksdb_minor_version.addr, align 4
  %cmp3 = icmp sle i32 %2, 18
  br i1 %cmp3, label %if.then, label %if.end

if.then:                                          ; preds = %land.lhs.true, %entry
  %compaction_pri = getelementptr inbounds %"struct.rocksdb::AdvancedColumnFamilyOptions", ptr %this1, i32 0, i32 29
  store i8 0, ptr %compaction_pri, align 1
  br label %if.end

if.end:                                           ; preds = %if.then, %land.lhs.true, %lor.lhs.false
  %3 = load i32, ptr %rocksdb_major_version.addr, align 4
  %cmp4 = icmp slt i32 %3, 4
  br i1 %cmp4, label %if.then9, label %lor.lhs.false5

lor.lhs.false5:                                   ; preds = %if.end
  %4 = load i32, ptr %rocksdb_major_version.addr, align 4
  %cmp6 = icmp eq i32 %4, 4
  br i1 %cmp6, label %land.lhs.true7, label %if.end10

land.lhs.true7:                                   ; preds = %lor.lhs.false5
  %5 = load i32, ptr %rocksdb_minor_version.addr, align 4
  %cmp8 = icmp slt i32 %5, 7
  br i1 %cmp8, label %if.then9, label %if.end10

if.then9:                                         ; preds = %land.lhs.true7, %if.end
  %write_buffer_size = getelementptr inbounds %"struct.rocksdb::ColumnFamilyOptions", ptr %this1, i32 0, i32 5
  store i64 4194304, ptr %write_buffer_size, align 8
  %target_file_size_base = getelementptr inbounds %"struct.rocksdb::AdvancedColumnFamilyOptions", ptr %this1, i32 0, i32 18
  store i64 2097152, ptr %target_file_size_base, align 8
  %max_bytes_for_level_base = getelementptr inbounds %"struct.rocksdb::ColumnFamilyOptions", ptr %this1, i32 0, i32 14
  store i64 10485760, ptr %max_bytes_for_level_base, align 8
  %soft_pending_compaction_bytes_limit = getelementptr inbounds %"struct.rocksdb::AdvancedColumnFamilyOptions", ptr %this1, i32 0, i32 26
  store i64 0, ptr %soft_pending_compaction_bytes_limit, align 8
  %hard_pending_compaction_bytes_limit = getelementptr inbounds %"struct.rocksdb::AdvancedColumnFamilyOptions", ptr %this1, i32 0, i32 27
  store i64 0, ptr %hard_pending_compaction_bytes_limit, align 8
  br label %if.end10

if.end10:                                         ; preds = %if.then9, %land.lhs.true7, %lor.lhs.false5
  %6 = load i32, ptr %rocksdb_major_version.addr, align 4
  %cmp11 = icmp slt i32 %6, 5
  br i1 %cmp11, label %if.then12, label %if.else

if.then12:                                        ; preds = %if.end10
  %level0_stop_writes_trigger = getelementptr inbounds %"struct.rocksdb::AdvancedColumnFamilyOptions", ptr %this1, i32 0, i32 17
  store i32 24, ptr %level0_stop_writes_trigger, align 8
  br label %if.end19

if.else:                                          ; preds = %if.end10
  %7 = load i32, ptr %rocksdb_major_version.addr, align 4
  %cmp13 = icmp eq i32 %7, 5
  br i1 %cmp13, label %land.lhs.true14, label %if.end18

land.lhs.true14:                                  ; preds = %if.else
  %8 = load i32, ptr %rocksdb_minor_version.addr, align 4
  %cmp15 = icmp slt i32 %8, 2
  br i1 %cmp15, label %if.then16, label %if.end18

if.then16:                                        ; preds = %land.lhs.true14
  %level0_stop_writes_trigger17 = getelementptr inbounds %"struct.rocksdb::AdvancedColumnFamilyOptions", ptr %this1, i32 0, i32 17
  store i32 30, ptr %level0_stop_writes_trigger17, align 8
  br label %if.end18

if.end18:                                         ; preds = %if.then16, %land.lhs.true14, %if.else
  br label %if.end19

if.end19:                                         ; preds = %if.end18, %if.then12
  ret ptr %this1
}

; Function Attrs: mustprogress uwtable
define noundef ptr @_ZN7rocksdb7Options11OldDefaultsEii(ptr noundef nonnull align 8 dereferenceable(1508) %this, i32 noundef %rocksdb_major_version, i32 noundef %rocksdb_minor_version) #0 align 2 {
entry:
  %this.addr = alloca ptr, align 8
  %rocksdb_major_version.addr = alloca i32, align 4
  %rocksdb_minor_version.addr = alloca i32, align 4
  store ptr %this, ptr %this.addr, align 8
  store i32 %rocksdb_major_version, ptr %rocksdb_major_version.addr, align 4
  store i32 %rocksdb_minor_version, ptr %rocksdb_minor_version.addr, align 4
  %this1 = load ptr, ptr %this.addr, align 8
  %add.ptr = getelementptr inbounds i8, ptr %this1, i64 688
  %0 = load i32, ptr %rocksdb_major_version.addr, align 4
  %1 = load i32, ptr %rocksdb_minor_version.addr, align 4
  %call = call noundef ptr @_ZN7rocksdb19ColumnFamilyOptions11OldDefaultsEii(ptr noundef nonnull align 8 dereferenceable(820) %add.ptr, i32 noundef %0, i32 noundef %1)
  %2 = load i32, ptr %rocksdb_major_version.addr, align 4
  %3 = load i32, ptr %rocksdb_minor_version.addr, align 4
  %call2 = call noundef ptr @_ZN7rocksdb9DBOptions11OldDefaultsEii(ptr noundef nonnull align 8 dereferenceable(688) %this1, i32 noundef %2, i32 noundef %3)
  ret ptr %this1
}