; Function Attrs: mustprogress nofree norecurse nosync nounwind willreturn memory(argmem: write) uwtable
define noundef nonnull ptr @_ZN7rocksdb7Options11OldDefaultsEii(ptr noundef nonnull returned writeonly align 8 dereferenceable(1508) %this, i32 noundef %rocksdb_major_version, i32 noundef %rocksdb_minor_version) local_unnamed_addr #8 align 2 {
entry:
  %cmp.i = icmp slt i32 %rocksdb_major_version, 5
  br i1 %cmp.i, label %if.end.i, label %lor.lhs.false.i

lor.lhs.false.i:                                  ; preds = %entry
  %cmp2.i = icmp eq i32 %rocksdb_major_version, 5
  %cmp3.i = icmp slt i32 %rocksdb_minor_version, 19
  %or.cond.i = and i1 %cmp2.i, %cmp3.i
  br i1 %or.cond.i, label %if.end.thread11.i, label %if.else.i

if.end.thread11.i:                                ; preds = %lor.lhs.false.i
  %compaction_pri12.i = getelementptr inbounds i8, ptr %this, i64 921
  store i8 0, ptr %compaction_pri12.i, align 1
  br label %if.else.i

if.end.i:                                         ; preds = %entry
  %compaction_pri.i = getelementptr inbounds i8, ptr %this, i64 921
  store i8 0, ptr %compaction_pri.i, align 1
  %cmp4.i = icmp ne i32 %rocksdb_major_version, 4
  %cmp8.i = icmp slt i32 %rocksdb_minor_version, 7
  %or.cond17.i = or i1 %cmp4.i, %cmp8.i
  br i1 %or.cond17.i, label %_ZN7rocksdb19ColumnFamilyOptions11OldDefaultsEii.exit, label %_ZN7rocksdb19ColumnFamilyOptions11OldDefaultsEii.exit.thread13

if.else.i:                                        ; preds = %if.end.thread11.i, %lor.lhs.false.i
  %cmp15.i = icmp slt i32 %rocksdb_minor_version, 2
  %or.cond2.i = and i1 %cmp2.i, %cmp15.i
  br i1 %or.cond2.i, label %_ZN7rocksdb19ColumnFamilyOptions11OldDefaultsEii.exit.thread13, label %lor.lhs.false5.i

_ZN7rocksdb19ColumnFamilyOptions11OldDefaultsEii.exit.thread13: ; preds = %if.end.i, %if.else.i
  %.sink.i.ph = phi i32 [ 30, %if.else.i ], [ 24, %if.end.i ]
  %level0_stop_writes_trigger17.i15 = getelementptr inbounds i8, ptr %this, i64 832
  store i32 %.sink.i.ph, ptr %level0_stop_writes_trigger17.i15, align 8
  br label %lor.lhs.false.i4

_ZN7rocksdb19ColumnFamilyOptions11OldDefaultsEii.exit: ; preds = %if.end.i
  %write_buffer_size.i = getelementptr inbounds i8, ptr %this, i64 1256
  store i64 4194304, ptr %write_buffer_size.i, align 8
  %target_file_size_base.i = getelementptr inbounds i8, ptr %this, i64 840
  store i64 2097152, ptr %target_file_size_base.i, align 8
  %max_bytes_for_level_base.i = getelementptr inbounds i8, ptr %this, i64 1408
  store i64 10485760, ptr %max_bytes_for_level_base.i, align 8
  %soft_pending_compaction_bytes_limit.i = getelementptr inbounds i8, ptr %this, i64 904
  tail call void @llvm.memset.p0.i64(ptr noundef nonnull align 8 dereferenceable(16) %soft_pending_compaction_bytes_limit.i, i8 0, i64 16, i1 false)
  %level0_stop_writes_trigger17.i = getelementptr inbounds i8, ptr %this, i64 832
  store i32 24, ptr %level0_stop_writes_trigger17.i, align 8
  %cmp.i3.not = icmp eq i32 %rocksdb_major_version, 4
  br i1 %cmp.i3.not, label %lor.lhs.false.i4, label %if.end.thread.i

lor.lhs.false.i4:                                 ; preds = %_ZN7rocksdb19ColumnFamilyOptions11OldDefaultsEii.exit.thread13, %_ZN7rocksdb19ColumnFamilyOptions11OldDefaultsEii.exit
  %cmp2.i5 = icmp eq i32 %rocksdb_major_version, 4
  %cmp3.i6 = icmp slt i32 %rocksdb_minor_version, 7
  %or.cond.i7 = and i1 %cmp2.i5, %cmp3.i6
  br i1 %or.cond.i7, label %if.end.thread.i, label %if.end.i8

if.end.thread.i:                                  ; preds = %lor.lhs.false.i4, %_ZN7rocksdb19ColumnFamilyOptions11OldDefaultsEii.exit
  %max_file_opening_threads.i = getelementptr inbounds i8, ptr %this, i64 72
  store i32 1, ptr %max_file_opening_threads.i, align 8
  %table_cache_numshardbits.i = getelementptr inbounds i8, ptr %this, i64 264
  store i32 4, ptr %table_cache_numshardbits.i, align 8
  br label %if.end18.sink.split.i

if.end.i8:                                        ; preds = %lor.lhs.false.i4
  br i1 %cmp2.i5, label %if.end18.sink.split.i, label %lor.lhs.false5.i

lor.lhs.false5.i:                                 ; preds = %if.end.i8, %if.else.i
  %cmp6.i = icmp eq i32 %rocksdb_major_version, 5
  %cmp8.i9 = icmp slt i32 %rocksdb_minor_version, 2
  %or.cond1.i = and i1 %cmp6.i, %cmp8.i9
  br i1 %or.cond1.i, label %if.end18.sink.split.i, label %lor.lhs.false11.i

lor.lhs.false11.i:                                ; preds = %lor.lhs.false5.i
  %cmp14.i = icmp slt i32 %rocksdb_minor_version, 6
  %or.cond2.i10 = and i1 %cmp6.i, %cmp14.i
  br i1 %or.cond2.i10, label %if.end18.sink.split.i, label %_ZN7rocksdb9DBOptions11OldDefaultsEii.exit

if.end18.sink.split.i:                            ; preds = %lor.lhs.false11.i, %lor.lhs.false5.i, %if.end.i8, %if.end.thread.i
  %.sink.i11 = phi i64 [ 2097152, %if.end.thread.i ], [ 2097152, %lor.lhs.false5.i ], [ 2097152, %if.end.i8 ], [ 16777216, %lor.lhs.false11.i ]
  %delayed_write_rate16.i = getelementptr inbounds i8, ptr %this, i64 456
  store i64 %.sink.i11, ptr %delayed_write_rate16.i, align 8
  br label %_ZN7rocksdb9DBOptions11OldDefaultsEii.exit

_ZN7rocksdb9DBOptions11OldDefaultsEii.exit:       ; preds = %lor.lhs.false11.i, %if.end18.sink.split.i
  %max_open_files.i = getelementptr inbounds i8, ptr %this, i64 68
  store i32 5000, ptr %max_open_files.i, align 4
  %wal_recovery_mode.i = getelementptr inbounds i8, ptr %this, i64 498
  store i8 0, ptr %wal_recovery_mode.i, align 2
  ret ptr %this
}